Certificate:
    Data:
        Version: 3 (0x2)
        Serial Number: 16164578380170221285 (0xe0541e64a60156e5)
    Signature Algorithm: sha256WithRSAEncryption
        Issuer: C=US, ST=NH, L=Wolfeboro, O=Python Software Foundation, CN=PSF Infrastructure CA
        Validity
            Not Before: Sep 14 00:59:28 2014 GMT
            Not After : Sep 13 00:59:28 2016 GMT
        Subject: C=US, ST=NH, L=Wolfeboro, O=Python Software Foundation, CN=dstufft
        Subject Public Key Info:
            Public Key Algorithm: rsaEncryption
                Public-Key: (2048 bit)
                Modulus:
                    00:b1:df:cb:4f:2b:d8:49:60:45:ee:94:7c:80:c4:
                    9c:56:d2:a5:d1:61:5d:8f:13:11:c7:9a:d1:a9:f2:
                    d8:eb:4e:2c:02:87:ab:eb:15:20:33:fa:a7:6a:40:
                    12:63:de:14:4a:c8:21:57:de:1c:98:99:bd:25:f0:
                    98:43:d3:de:0b:40:09:49:4e:27:9d:24:d9:f1:e2:
                    a7:d7:69:6a:d7:15:4d:f6:09:ee:42:3e:3e:0f:26:
                    73:df:0e:bd:50:b6:fa:87:9d:84:86:1c:7f:b6:f7:
                    60:a3:d6:85:a0:ea:20:44:be:bc:a9:8e:ec:3e:2a:
                    2a:8a:34:d8:d6:f9:32:ae:be:35:a6:cf:ef:f8:64:
                    b6:2f:6c:a7:b9:ca:fc:b6:d8:ea:4e:b3:4a:e8:1e:
                    db:a9:d8:9c:a3:8c:e0:47:12:55:44:16:13:ce:e4:
                    05:ce:f9:0b:0c:0d:4d:e1:41:05:49:e3:bd:6a:bf:
                    a6:12:1c:f8:7f:58:37:4b:89:3d:5c:ca:6d:16:21:
                    e6:76:66:24:90:75:7f:cc:47:8f:af:6f:a2:b0:9b:
                    60:b4:ea:0f:7d:df:c3:52:79:63:aa:4b:69:76:7a:
                    53:0b:86:8c:ae:da:50:1d:6a:6f:5c:1d:ad:84:d8:
                    77:8f:87:99:8d:32:09:ca:cb:66:a5:53:87:b3:72:
                    60:25
                Exponent: 65537 (0x10001)
        X509v3 extensions:
            X509v3 Basic Constraints: 
                CA:FALSE
            Netscape Cert Type: 
                SSL Client
            X509v3 Key Usage: 
                Digital Signature
            X509v3 Extended Key Usage: 
                TLS Web Client Authentication
            X509v3 Subject Key Identifier: 
                A8:36:F6:7F:71:52:13:10:AA:22:BE:42:05:42:51:F9:51:24:2B:D4
            X509v3 Authority Key Identifier: 
                keyid:EA:CF:EF:76:48:D7:B6:2C:6E:00:31:22:A5:96:19:46:89:0B:B4:46

    Signature Algorithm: sha256WithRSAEncryption
         43:b4:07:2d:28:0e:d5:1b:0b:6a:c9:f3:41:85:cb:92:90:c0:
         7c:c5:60:f8:a7:c5:49:f5:fb:c9:59:a0:58:e0:5e:5e:be:a0:
         6f:da:a8:a8:40:8b:8d:52:29:21:d2:76:22:d1:72:93:86:05:
         d3:a7:a6:57:ea:34:3c:e6:a0:d2:51:bf:0a:04:1c:18:ad:16:
         56:c0:9d:ea:9a:0f:5c:b6:e4:45:dd:86:2a:b7:30:95:dd:5f:
         2e:bd:ed:a7:d7:3b:ee:8e:93:33:4a:25:f1:92:5a:5b:73:b7:
         29:d1:66:63:38:fe:19:9f:ad:8d:0b:52:c1:97:e0:90:18:3d:
         fd:55:ee:f0:c9:c7:2c:ec:52:d0:7c:b5:58:ec:7e:66:c6:5d:
         c6:38:e9:3e:0a:2b:08:8f:07:30:93:79:cd:6d:f6:d3:13:c8:
         fe:15:f8:78:68:e5:c1:0f:b6:b8:4c:82:fd:31:e8:71:f2:72:
         7a:7e:04:da:57:e7:d6:f7:0e:6f:80:f3:12:e3:77:8d:3d:e7:
         b5:fa:8c:88:99:c2:27:25:cb:5b:88:68:63:03:ac:4c:8d:f5:
         db:c3:c4:34:cc:5c:0d:49:39:ab:94:0d:7b:38:80:5f:63:88:
         cc:1a:4d:b6:a5:03:df:dc:ec:80:63:87:dd:dd:e8:7d:53:31:
         af:4d:a4:d3:19:70:5d:4e:f8:60:1f:a8:33:a9:c7:f1:70:66:
         f3:c7:f4:44:9f:98:8e:3e:b4:f6:cb:86:60:2d:06:5a:18:3e:
         55:54:83:72:50:af:80:9b:c4:dd:6e:56:98:17:e3:66:9c:5d:
         34:24:52:3f:b9:8c:39:f3:53:10:06:c6:d5:d5:bb:f9:66:59:
         cc:37:26:84:ce:b4:c0:ae:fc:0a:fc:12:a6:a7:16:64:49:70:
         6a:cf:49:22:6a:b6:f8:31:99:87:5d:ff:9b:e1:90:ee:8a:84:
         b5:a6:80:f0:f8:3c:bb:62:48:c4:de:74:6c:81:1b:36:07:c0:
         69:5b:18:4d:3d:7e:88:0e:03:34:5d:75:f4:a9:bd:7b:36:39:
         25:ef:59:6d:d3:15:58:7c:e7:00:d1:fe:85:2c:b0:94:43:2d:
         4d:ab:b3:05:a5:7e:98:2c:a8:41:c5:ac:81:41:44:2d:30:01:
         70:16:a0:a9:2b:45:cc:9e:76:6c:80:17:5c:8a:5d:66:fc:7d:
         d5:fc:c6:54:86:f6:1c:e2:73:b9:5d:6c:1a:b2:73:ec:77:17:
         11:87:63:8b:a2:41:e9:71:fa:22:b3:c0:1a:3b:38:f6:76:1c:
         3d:bc:2d:59:78:b8:b0:a1:a4:4b:5c:20:d1:f4:05:68:eb:59:
         dd:ba:21:da:2b:ec:f3:c2
-----BEGIN CERTIFICATE-----
MIIE3zCCAsegAwIBAgIJAOBUHmSmAVblMA0GCSqGSIb3DQEBCwUAMHMxCzAJBgNV
BAYTAlVTMQswCQYDVQQIDAJOSDESMBAGA1UEBwwJV29sZmVib3JvMSMwIQYDVQQK
DBpQeXRob24gU29mdHdhcmUgRm91bmRhdGlvbjEeMBwGA1UEAwwVUFNGIEluZnJh
c3RydWN0dXJlIENBMB4XDTE0MDkxNDAwNTkyOFoXDTE2MDkxMzAwNTkyOFowZTEL
MAkGA1UEBhMCVVMxCzAJBgNVBAgMAk5IMRIwEAYDVQQHDAlXb2xmZWJvcm8xIzAh
BgNVBAoMGlB5dGhvbiBTb2Z0d2FyZSBGb3VuZGF0aW9uMRAwDgYDVQQDDAdkc3R1
ZmZ0MIIBIjANBgkqhkiG9w0BAQEFAAOCAQ8AMIIBCgKCAQEAsd/LTyvYSWBF7pR8
gMScVtKl0WFdjxMRx5rRqfLY604sAoer6xUgM/qnakASY94USsghV94cmJm9JfCY
Q9PeC0AJSU4nnSTZ8eKn12lq1xVN9gnuQj4+DyZz3w69ULb6h52Ehhx/tvdgo9aF
oOogRL68qY7sPioqijTY1vkyrr41ps/v+GS2L2ynucr8ttjqTrNK6B7bqdico4zg
RxJVRBYTzuQFzvkLDA1N4UEFSeO9ar+mEhz4f1g3S4k9XMptFiHmdmYkkHV/zEeP
r2+isJtgtOoPfd/DUnljqktpdnpTC4aMrtpQHWpvXB2thNh3j4eZjTIJystmpVOH
s3JgJQIDAQABo4GDMIGAMAkGA1UdEwQCMAAwEQYJYIZIAYb4QgEBBAQDAgeAMAsG
A1UdDwQEAwIHgDATBgNVHSUEDDAKBggrBgEFBQcDAjAdBgNVHQ4EFgQUqDb2f3FS
ExCqIr5CBUJR+VEkK9QwHwYDVR0jBBgwFoAU6s/vdkjXtixuADEipZYZRokLtEYw
DQYJKoZIhvcNAQELBQADggIBAEO0By0oDtUbC2rJ80GFy5KQwHzFYPinxUn1+8lZ
oFjgXl6+oG/aqKhAi41SKSHSdiLRcpOGBdOnplfqNDzmoNJRvwoEHBitFlbAneqa
D1y25EXdhiq3MJXdXy697afXO+6OkzNKJfGSWltztynRZmM4/hmfrY0LUsGX4JAY
Pf1V7vDJxyzsUtB8tVjsfmbGXcY46T4KKwiPBzCTec1t9tMTyP4V+Hho5cEPtrhM
gv0x6HHycnp+BNpX59b3Dm+A8xLjd40957X6jIiZwicly1uIaGMDrEyN9dvDxDTM
XA1JOauUDXs4gF9jiMwaTbalA9/c7IBjh93d6H1TMa9NpNMZcF1O+GAfqDOpx/Fw
ZvPH9ESfmI4+tPbLhmAtBloYPlVUg3JQr4CbxN1uVpgX42acXTQkUj+5jDnzUxAG
xtXVu/lmWcw3JoTOtMCu/Ar8EqanFmRJcGrPSSJqtvgxmYdd/5vhkO6KhLWmgPD4
PLtiSMTedGyBGzYHwGlbGE09fogOAzRddfSpvXs2OSXvWW3TFVh85wDR/oUssJRD
LU2rswWlfpgsqEHFrIFBRC0wAXAWoKkrRcyedmyAF1yKXWb8fdX8xlSG9hzic7ld
bBqyc+x3FxGHY4uiQelx+iKzwBo7OPZ2HD28LVl4uLChpEtcINH0BWjrWd26Idor
7PPC
-----END CERTIFICATE-----
