Certificate:
    Data:
        Version: 3 (0x2)
        Serial Number: 16164578380170221283 (0xe0541e64a60156e3)
    Signature Algorithm: sha256WithRSAEncryption
        Issuer: C=US, ST=NH, L=Wolfeboro, O=Python Software Foundation, CN=PSF Infrastructure CA
        Validity
            Not Before: Sep 13 23:56:32 2014 GMT
            Not After : Sep 10 23:56:32 2024 GMT
        Subject: C=US, ST=NH, L=Wolfeboro, O=Python Software Foundation, CN=PSF Infrastructure CA
        Subject Public Key Info:
            Public Key Algorithm: rsaEncryption
                Public-Key: (4096 bit)
                Modulus:
                    00:d0:8a:26:00:f4:ce:df:03:48:a3:97:41:cf:39:
                    b5:4a:11:72:f2:e1:d4:cf:f3:42:21:fc:b3:ec:06:
                    54:9e:6c:f9:9d:dc:8e:d2:d0:08:d8:bd:42:72:97:
                    e3:07:6f:5b:da:3b:58:26:ee:73:46:05:d2:71:65:
                    a2:6c:b3:00:75:2c:74:28:7d:31:42:20:2f:cb:40:
                    d7:51:f2:87:a3:30:d6:e1:db:e2:0c:95:82:44:ff:
                    e3:81:52:8b:9f:35:67:be:c4:a6:08:98:70:a2:79:
                    7f:2e:3c:d8:40:19:6b:c2:1e:15:fc:7e:27:d0:e5:
                    22:c7:cc:dc:2f:23:ff:60:0e:84:ec:42:a7:3e:07:
                    c2:ef:df:62:1a:10:09:73:d4:ae:bd:a7:0d:50:09:
                    35:65:58:91:26:11:4d:2b:c5:2a:3b:30:93:36:66:
                    0a:2c:bb:45:b4:a2:d1:2e:67:d4:3a:14:e7:27:34:
                    4f:54:fe:dd:0c:33:95:53:15:f8:8a:d7:31:13:10:
                    90:1d:41:3f:3d:ea:21:e8:68:2b:f0:d6:f4:3a:9c:
                    5a:7c:74:3e:a3:fb:bc:db:06:cc:5c:c7:3f:82:47:
                    f5:86:45:71:72:06:17:4d:5c:a8:12:7d:f5:1d:51:
                    5b:9f:e7:8a:13:8e:eb:d8:00:77:62:8f:dd:18:ce:
                    47:54:56:e7:f7:55:0c:18:38:4d:b2:6c:b0:63:e8:
                    a6:58:47:d3:bc:f9:0c:db:a3:7f:80:e4:0d:ec:40:
                    45:61:05:b3:3b:c8:2d:d4:22:2d:27:c3:73:dd:e8:
                    c6:b6:80:2f:01:f9:6e:71:ba:2b:41:49:1c:75:c8:
                    7a:f6:4d:fe:1f:59:aa:51:bd:00:e0:f6:60:c5:43:
                    71:a2:39:a0:f1:53:56:10:68:6a:65:92:73:c5:9d:
                    4a:c4:7b:82:7e:4a:32:82:06:cc:4b:ee:ec:5d:05:
                    82:32:c0:d6:0e:c1:25:01:de:86:30:69:85:61:3b:
                    dd:a9:ed:21:9f:7d:92:aa:58:09:65:4a:da:2c:3d:
                    52:e2:cd:47:cf:03:72:64:7b:c8:80:3e:7b:34:ef:
                    2a:8e:42:eb:b3:7b:64:68:ff:82:c5:83:86:bc:2d:
                    32:96:67:ff:fc:c9:00:3f:7b:58:78:76:13:7b:f3:
                    1e:cd:d0:d8:4f:7e:99:82:ca:09:1a:0e:1c:61:46:
                    e9:87:4f:6e:4c:15:3e:b9:f1:91:dc:19:95:af:ce:
                    e1:62:ed:bf:a6:e6:b9:12:9a:63:01:9b:cc:26:6f:
                    19:43:2b:39:c1:27:9c:8e:be:be:15:ca:5d:0a:39:
                    21:3f:5c:2e:75:61:cd:91:f1:f0:2b:8c:ca:84:12:
                    1a:77:a7
                Exponent: 65537 (0x10001)
        X509v3 extensions:
            X509v3 Basic Constraints: 
                CA:TRUE
            Netscape Cert Type: 
                SSL CA
            X509v3 Key Usage: 
                Certificate Sign, CRL Sign
            X509v3 Subject Key Identifier: 
                EA:CF:EF:76:48:D7:B6:2C:6E:00:31:22:A5:96:19:46:89:0B:B4:46
            X509v3 Authority Key Identifier: 
                keyid:EA:CF:EF:76:48:D7:B6:2C:6E:00:31:22:A5:96:19:46:89:0B:B4:46
                DirName:/C=US/ST=NH/L=Wolfeboro/O=Python Software Foundation/CN=PSF Infrastructure CA
                serial:E0:54:1E:64:A6:01:56:E3

            X509v3 Subject Alternative Name: 
                email:donald@python.org
    Signature Algorithm: sha256WithRSAEncryption
         53:66:65:9c:04:ad:53:2e:b1:3e:17:e5:7c:b2:0e:a7:0a:10:
         47:64:d1:43:86:35:71:a1:d3:5d:63:85:17:c1:a6:3c:c8:c1:
         a0:5b:9c:ed:c4:bb:15:19:09:d0:56:19:57:d0:09:ca:5b:79:
         1a:3c:ec:7e:a9:3a:64:83:d4:f3:0d:70:52:a3:2b:b4:ba:40:
         7d:60:a6:1e:38:6f:1f:71:c8:d8:b3:13:1a:0a:29:8f:5f:20:
         7b:a2:5d:21:08:66:f2:8d:6b:e8:55:ab:06:5d:48:31:31:ee:
         1f:3f:01:33:1f:48:13:40:d9:01:2d:ab:da:40:22:f3:ee:14:
         7b:50:1a:6d:1b:d4:8b:ca:e4:5d:63:b7:35:c2:b5:43:f6:4c:
         36:57:ea:0c:b9:a1:c0:c7:0b:0f:81:aa:f9:fd:85:f0:3a:c5:
         7d:38:e3:f7:1c:a3:b4:d7:72:c0:77:f2:f8:f1:2f:36:5d:61:
         95:32:b2:bd:9e:18:c2:12:07:d4:07:8f:53:cd:59:89:1f:6e:
         4c:1b:12:22:a7:d6:1e:46:8f:45:d6:06:21:16:2e:e5:ff:4f:
         69:aa:84:15:f5:7d:05:83:04:be:71:67:ad:62:fc:09:72:21:
         ff:7c:38:30:9d:88:8f:3c:ac:e5:3e:0e:b3:d0:a0:a6:26:2d:
         34:42:e3:ab:d2:93:dd:64:0f:91:3b:1e:36:c7:e8:9f:bf:55:
         d4:ab:c9:93:da:f9:e5:2d:eb:5e:c5:3c:f2:66:60:74:a6:94:
         a5:42:5d:ec:3f:23:fc:96:90:eb:6e:ab:69:14:4d:77:d5:4a:
         17:bf:a1:77:de:b5:86:23:c1:dd:2d:c7:74:aa:24:a7:74:fd:
         71:5f:26:84:df:f4:ee:95:dc:ca:56:8d:13:5b:d7:7d:d7:0b:
         d8:3d:8e:af:cd:c3:d8:b4:e3:e0:e0:fd:c0:a8:95:de:89:41:
         7f:07:09:0c:20:8a:6a:37:2c:66:59:1d:d7:32:67:48:22:5e:
         3a:87:29:2d:9b:87:03:d7:f8:f3:57:1e:f3:c4:6b:74:af:9d:
         4f:31:31:50:c9:c3:18:4f:c4:81:9b:4f:94:f2:1e:a3:15:7f:
         28:77:55:3e:e9:14:de:0a:9b:d2:94:e2:4a:46:8d:f7:52:dd:
         d7:16:e8:d1:b8:b5:9e:cc:d2:eb:15:62:5a:d0:7f:1e:3e:cb:
         2d:43:c6:0b:3a:98:04:ef:93:a7:e6:14:ab:ba:9c:a5:bc:c2:
         4f:0e:a9:ef:64:c9:2e:e5:5a:56:0d:81:7c:30:6e:8e:8d:58:
         86:58:13:67:18:79:a4:13:cc:56:df:ff:b6:08:36:8d:6b:f9:
         f8:df:3c:3a:9d:c0:60:46
-----BEGIN CERTIFICATE-----
MIIGgjCCBGqgAwIBAgIJAOBUHmSmAVbjMA0GCSqGSIb3DQEBCwUAMHMxCzAJBgNV
BAYTAlVTMQswCQYDVQQIDAJOSDESMBAGA1UEBwwJV29sZmVib3JvMSMwIQYDVQQK
DBpQeXRob24gU29mdHdhcmUgRm91bmRhdGlvbjEeMBwGA1UEAwwVUFNGIEluZnJh
c3RydWN0dXJlIENBMB4XDTE0MDkxMzIzNTYzMloXDTI0MDkxMDIzNTYzMlowczEL
MAkGA1UEBhMCVVMxCzAJBgNVBAgMAk5IMRIwEAYDVQQHDAlXb2xmZWJvcm8xIzAh
BgNVBAoMGlB5dGhvbiBTb2Z0d2FyZSBGb3VuZGF0aW9uMR4wHAYDVQQDDBVQU0Yg
SW5mcmFzdHJ1Y3R1cmUgQ0EwggIiMA0GCSqGSIb3DQEBAQUAA4ICDwAwggIKAoIC
AQDQiiYA9M7fA0ijl0HPObVKEXLy4dTP80Ih/LPsBlSebPmd3I7S0AjYvUJyl+MH
b1vaO1gm7nNGBdJxZaJsswB1LHQofTFCIC/LQNdR8oejMNbh2+IMlYJE/+OBUouf
NWe+xKYImHCieX8uPNhAGWvCHhX8fifQ5SLHzNwvI/9gDoTsQqc+B8Lv32IaEAlz
1K69pw1QCTVlWJEmEU0rxSo7MJM2Zgosu0W0otEuZ9Q6FOcnNE9U/t0MM5VTFfiK
1zETEJAdQT896iHoaCvw1vQ6nFp8dD6j+7zbBsxcxz+CR/WGRXFyBhdNXKgSffUd
UVuf54oTjuvYAHdij90YzkdUVuf3VQwYOE2ybLBj6KZYR9O8+Qzbo3+A5A3sQEVh
BbM7yC3UIi0nw3Pd6Ma2gC8B+W5xuitBSRx1yHr2Tf4fWapRvQDg9mDFQ3GiOaDx
U1YQaGplknPFnUrEe4J+SjKCBsxL7uxdBYIywNYOwSUB3oYwaYVhO92p7SGffZKq
WAllStosPVLizUfPA3Jke8iAPns07yqOQuuze2Ro/4LFg4a8LTKWZ//8yQA/e1h4
dhN78x7N0NhPfpmCygkaDhxhRumHT25MFT658ZHcGZWvzuFi7b+m5rkSmmMBm8wm
bxlDKznBJ5yOvr4Vyl0KOSE/XC51Yc2R8fArjMqEEhp3pwIDAQABo4IBFzCCARMw
DAYDVR0TBAUwAwEB/zARBglghkgBhvhCAQEEBAMCAgQwCwYDVR0PBAQDAgEGMB0G
A1UdDgQWBBTqz+92SNe2LG4AMSKllhlGiQu0RjCBpQYDVR0jBIGdMIGagBTqz+92
SNe2LG4AMSKllhlGiQu0RqF3pHUwczELMAkGA1UEBhMCVVMxCzAJBgNVBAgMAk5I
MRIwEAYDVQQHDAlXb2xmZWJvcm8xIzAhBgNVBAoMGlB5dGhvbiBTb2Z0d2FyZSBG
b3VuZGF0aW9uMR4wHAYDVQQDDBVQU0YgSW5mcmFzdHJ1Y3R1cmUgQ0GCCQDgVB5k
pgFW4zAcBgNVHREEFTATgRFkb25hbGRAcHl0aG9uLm9yZzANBgkqhkiG9w0BAQsF
AAOCAgEAU2ZlnAStUy6xPhflfLIOpwoQR2TRQ4Y1caHTXWOFF8GmPMjBoFuc7cS7
FRkJ0FYZV9AJylt5Gjzsfqk6ZIPU8w1wUqMrtLpAfWCmHjhvH3HI2LMTGgopj18g
e6JdIQhm8o1r6FWrBl1IMTHuHz8BMx9IE0DZAS2r2kAi8+4Ue1AabRvUi8rkXWO3
NcK1Q/ZMNlfqDLmhwMcLD4Gq+f2F8DrFfTjj9xyjtNdywHfy+PEvNl1hlTKyvZ4Y
whIH1AePU81ZiR9uTBsSIqfWHkaPRdYGIRYu5f9PaaqEFfV9BYMEvnFnrWL8CXIh
/3w4MJ2Ijzys5T4Os9CgpiYtNELjq9KT3WQPkTseNsfon79V1KvJk9r55S3rXsU8
8mZgdKaUpUJd7D8j/JaQ626raRRNd9VKF7+hd961hiPB3S3HdKokp3T9cV8mhN/0
7pXcylaNE1vXfdcL2D2Or83D2LTj4OD9wKiV3olBfwcJDCCKajcsZlkd1zJnSCJe
OocpLZuHA9f481ce88RrdK+dTzExUMnDGE/EgZtPlPIeoxV/KHdVPukU3gqb0pTi
SkaN91Ld1xbo0bi1nszS6xViWtB/Hj7LLUPGCzqYBO+Tp+YUq7qcpbzCTw6p72TJ
LuVaVg2BfDBujo1YhlgTZxh5pBPMVt//tgg2jWv5+N88Op3AYEY=
-----END CERTIFICATE-----
